target datalayout = "e-m:e-p270:32:32-p271:32:32-p272:64:64-i64:64-i128:128-f80:128-n8:16:32:64-S128"
target triple = "x86_64-unknown-linux-gnu"

%struct.PCIDevice = type { %struct.DeviceState, i8, i8, ptr, ptr, ptr, ptr, ptr, i32, %struct.PCIReqIDCache, [64 x i8], [7 x %struct.PCIIORegion], %struct.AddressSpace, %struct.MemoryRegion, %struct.MemoryRegion, ptr, ptr, [3 x ptr], i8, i8, i32, i8, i32, ptr, ptr, ptr, ptr, ptr, ptr, %struct.MemoryRegion, %struct.MemoryRegion, %struct.MemoryRegion, ptr, i8, i32, i8, %struct.PCIExpressDevice, ptr, ptr, i32, i8, %struct.MemoryRegion, i32, ptr, ptr, ptr, ptr, ptr, i32 }
%struct.DeviceState = type { %struct.Object, ptr, ptr, i8, i8, i64, ptr, i32, i8, ptr, %struct.NamedGPIOListHead, %struct.NamedClockListHead, %struct.BusStateHead, i32, i32, i32, %struct.ResettableState, ptr, %struct.MemReentrancyGuard }
%struct.Object = type { ptr, ptr, ptr, i32, ptr }
%struct.NamedGPIOListHead = type { ptr }
%struct.NamedClockListHead = type { ptr }
%struct.BusStateHead = type { ptr }
%struct.ResettableState = type { i32, i8, i8 }
%struct.MemReentrancyGuard = type { i8 }
%struct.PCIReqIDCache = type { ptr, i32 }
%struct.PCIIORegion = type { i64, i64, i8, ptr, ptr }
%struct.AddressSpace = type { %struct.rcu_head, ptr, ptr, ptr, i32, i32, ptr, %union.anon, %union.anon.0 }
%struct.rcu_head = type { ptr, ptr }
%union.anon = type { %struct.QTailQLink }
%struct.QTailQLink = type { ptr, ptr }
%union.anon.0 = type { %struct.QTailQLink }
%struct.PCIExpressDevice = type { i8, i8, i8, i16, %struct.PCIEAERLog, i16, i16, i16, %struct.PCIESriovPF, %struct.PCIESriovVF }
%struct.PCIEAERLog = type { i16, i16, ptr }
%struct.PCIESriovPF = type { i16, [7 x i8], ptr, ptr }
%struct.PCIESriovVF = type { ptr, i16 }
%struct.MemoryRegion = type { %struct.Object, i8, i8, i8, i8, i8, i8, i8, i8, i8, i8, ptr, ptr, ptr, ptr, ptr, ptr, i32, i128, i64, ptr, i64, i8, i8, i8, i8, i8, ptr, i64, i32, %union.anon.1, %union.anon.2, %union.anon.3, ptr, i32, ptr, ptr, i8 }
%union.anon.1 = type { %struct.QTailQLink }
%union.anon.2 = type { %struct.QTailQLink }
%union.anon.3 = type { %struct.QTailQLink }

; Function Attrs: nounwind sspstrong uwtable
define internal ptr @msix_pending_byte(ptr noundef %dev, i32 noundef %vector) #0 {
entry:
  %dev.addr = alloca ptr, align 8
  %vector.addr = alloca i32, align 4
  store ptr %dev, ptr %dev.addr, align 8
  store i32 %vector, ptr %vector.addr, align 4
  %0 = load ptr, ptr %dev.addr, align 8
  %msix_pba = getelementptr inbounds %struct.PCIDevice, ptr %0, i32 0, i32 24
  %1 = load ptr, ptr %msix_pba, align 16
  %2 = load i32, ptr %vector.addr, align 4
  %div = sdiv i32 %2, 8
  %idx.ext = sext i32 %div to i64
  %add.ptr = getelementptr i8, ptr %1, i64 %idx.ext
  ret ptr %add.ptr
}

; Function Attrs: nounwind sspstrong uwtable
define internal zeroext i8 @msix_pending_mask(i32 noundef %vector) #0 {
entry:
  %vector.addr = alloca i32, align 4
  store i32 %vector, ptr %vector.addr, align 4
  %0 = load i32, ptr %vector.addr, align 4
  %rem = srem i32 %0, 8
  %shl = shl i32 1, %rem
  %conv = trunc i32 %shl to i8
  ret i8 %conv
}

; Function Attrs: nounwind sspstrong uwtable
define internal zeroext i1 @msix_masked(ptr noundef %dev) #0 {
entry:
  %dev.addr = alloca ptr, align 8
  store ptr %dev, ptr %dev.addr, align 8
  %0 = load ptr, ptr %dev.addr, align 8
  %config = getelementptr inbounds %struct.PCIDevice, ptr %0, i32 0, i32 3
  %1 = load ptr, ptr %config, align 8
  %2 = load ptr, ptr %dev.addr, align 8
  %msix_cap = getelementptr inbounds %struct.PCIDevice, ptr %2, i32 0, i32 21
  %3 = load i8, ptr %msix_cap, align 16
  %conv = zext i8 %3 to i32
  %add = add i32 %conv, 3
  %idxprom = sext i32 %add to i64
  %arrayidx = getelementptr i8, ptr %1, i64 %idxprom
  %4 = load i8, ptr %arrayidx, align 1
  %conv1 = zext i8 %4 to i32
  %and = and i32 %conv1, 64
  %tobool = icmp ne i32 %and, 0
  ret i1 %tobool
}

; Function Attrs: nounwind sspstrong uwtable
define dso_local i32 @msix_enabled(ptr noundef %dev) #0 {
entry:
  %dev.addr = alloca ptr, align 8
  store ptr %dev, ptr %dev.addr, align 8
  %0 = load ptr, ptr %dev.addr, align 8
  %cap_present = getelementptr inbounds %struct.PCIDevice, ptr %0, i32 0, i32 20
  %1 = load i32, ptr %cap_present, align 4
  %and = and i32 %1, 2
  %tobool = icmp ne i32 %and, 0
  br i1 %tobool, label %land.rhs, label %land.end

land.rhs:                                         ; preds = %entry
  %2 = load ptr, ptr %dev.addr, align 8
  %config = getelementptr inbounds %struct.PCIDevice, ptr %2, i32 0, i32 3
  %3 = load ptr, ptr %config, align 8
  %4 = load ptr, ptr %dev.addr, align 8
  %msix_cap = getelementptr inbounds %struct.PCIDevice, ptr %4, i32 0, i32 21
  %5 = load i8, ptr %msix_cap, align 16
  %conv = zext i8 %5 to i32
  %add = add i32 %conv, 3
  %idxprom = sext i32 %add to i64
  %arrayidx = getelementptr i8, ptr %3, i64 %idxprom
  %6 = load i8, ptr %arrayidx, align 1
  %conv1 = zext i8 %6 to i32
  %and2 = and i32 %conv1, 128
  %tobool3 = icmp ne i32 %and2, 0
  br label %land.end

land.end:                                         ; preds = %land.rhs, %entry
  %7 = phi i1 [ false, %entry ], [ %tobool3, %land.rhs ]
  %land.ext = zext i1 %7 to i32
  ret i32 %land.ext
}

; Function Attrs: nounwind sspstrong uwtable
define dso_local void @msix_clr_pending(ptr noundef %dev, i32 noundef %vector) #0 {
entry:
  %dev.addr = alloca ptr, align 8
  %vector.addr = alloca i32, align 4
  store ptr %dev, ptr %dev.addr, align 8
  store i32 %vector, ptr %vector.addr, align 4
  %0 = load i32, ptr %vector.addr, align 4
  %call = call zeroext i8 @msix_pending_mask(i32 noundef %0)
  %conv = zext i8 %call to i32
  %not = xor i32 %conv, -1
  %1 = load ptr, ptr %dev.addr, align 8
  %2 = load i32, ptr %vector.addr, align 4
  %call1 = call ptr @msix_pending_byte(ptr noundef %1, i32 noundef %2)
  %3 = load i8, ptr %call1, align 1
  %conv2 = zext i8 %3 to i32
  %and = and i32 %conv2, %not
  %conv3 = trunc i32 %and to i8
  store i8 %conv3, ptr %call1, align 1
  ret void
}

; Function Attrs: nounwind sspstrong uwtable
define internal void @msix_update_function_masked(ptr noundef %dev) #0 {
entry:
  %dev.addr = alloca ptr, align 8
  store ptr %dev, ptr %dev.addr, align 8
  %0 = load ptr, ptr %dev.addr, align 8
  %call = call i32 @msix_enabled(ptr noundef %0)
  %tobool = icmp ne i32 %call, 0
  br i1 %tobool, label %lor.rhs, label %lor.end

lor.rhs:                                          ; preds = %entry
  %1 = load ptr, ptr %dev.addr, align 8
  %call1 = call zeroext i1 @msix_masked(ptr noundef %1)
  br label %lor.end

lor.end:                                          ; preds = %lor.rhs, %entry
  %2 = phi i1 [ true, %entry ], [ %call1, %lor.rhs ]
  %3 = load ptr, ptr %dev.addr, align 8
  %msix_function_masked = getelementptr inbounds %struct.PCIDevice, ptr %3, i32 0, i32 33
  %frombool = zext i1 %2 to i8
  store i8 %frombool, ptr %msix_function_masked, align 8
  ret void
}

; Function Attrs: nounwind sspstrong uwtable
define internal void @msix_clear_all_vectors(ptr noundef %dev) #0 {
entry:
  %dev.addr = alloca ptr, align 8
  %vector = alloca i32, align 4
  store ptr %dev, ptr %dev.addr, align 8
  store i32 0, ptr %vector, align 4
  br label %for.cond

for.cond:                                         ; preds = %for.inc, %entry
  %0 = load i32, ptr %vector, align 4
  %1 = load ptr, ptr %dev.addr, align 8
  %msix_entries_nr = getelementptr inbounds %struct.PCIDevice, ptr %1, i32 0, i32 22
  %2 = load i32, ptr %msix_entries_nr, align 4
  %cmp = icmp slt i32 %0, %2
  br i1 %cmp, label %for.body, label %for.end

for.body:                                         ; preds = %for.cond
  %3 = load ptr, ptr %dev.addr, align 8
  %4 = load i32, ptr %vector, align 4
  call void @msix_clr_pending(ptr noundef %3, i32 noundef %4)
  br label %for.inc

for.inc:                                          ; preds = %for.body
  %5 = load i32, ptr %vector, align 4
  %inc = add i32 %5, 1
  store i32 %inc, ptr %vector, align 4
  br label %for.cond, !llvm.loop !10

for.end:                                          ; preds = %for.cond
  ret void
}

; Function Attrs: nounwind sspstrong uwtable
define dso_local i32 @msix_present(ptr noundef %dev) #0 {
entry:
  %dev.addr = alloca ptr, align 8
  store ptr %dev, ptr %dev.addr, align 8
  %0 = load ptr, ptr %dev.addr, align 8
  %cap_present = getelementptr inbounds %struct.PCIDevice, ptr %0, i32 0, i32 20
  %1 = load i32, ptr %cap_present, align 4
  %and = and i32 %1, 2
  ret i32 %and
}

; Function Attrs: nounwind sspstrong uwtable
define dso_local void @msix_load(ptr noundef %dev, ptr noundef %f) #0 {
entry:
  %dev.addr = alloca ptr, align 8
  %f.addr = alloca ptr, align 8
  %n = alloca i32, align 4
  %vector = alloca i32, align 4
  store ptr %dev, ptr %dev.addr, align 8
  store ptr %f, ptr %f.addr, align 8
  %0 = load ptr, ptr %dev.addr, align 8
  %msix_entries_nr = getelementptr inbounds %struct.PCIDevice, ptr %0, i32 0, i32 22
  %1 = load i32, ptr %msix_entries_nr, align 4
  store i32 %1, ptr %n, align 4
  %2 = load ptr, ptr %dev.addr, align 8
  %call = call i32 @msix_present(ptr noundef %2)
  %tobool = icmp ne i32 %call, 0
  br i1 %tobool, label %if.end, label %if.then

if.then:                                          ; preds = %entry
  br label %for.end

if.end:                                           ; preds = %entry
  %3 = load ptr, ptr %dev.addr, align 8
  call void @msix_clear_all_vectors(ptr noundef %3)
  %4 = load ptr, ptr %f.addr, align 8
  %5 = load ptr, ptr %dev.addr, align 8
  %msix_table = getelementptr inbounds %struct.PCIDevice, ptr %5, i32 0, i32 23
  %6 = load ptr, ptr %msix_table, align 8
  %7 = load i32, ptr %n, align 4
  %mul = mul i32 %7, 16
  %conv = zext i32 %mul to i64
  %call1 = call i64 @qemu_get_buffer(ptr noundef %4, ptr noundef %6, i64 noundef %conv)
  %8 = load ptr, ptr %f.addr, align 8
  %9 = load ptr, ptr %dev.addr, align 8
  %msix_pba = getelementptr inbounds %struct.PCIDevice, ptr %9, i32 0, i32 24
  %10 = load ptr, ptr %msix_pba, align 16
  %11 = load i32, ptr %n, align 4
  %add = add i32 %11, 8
  %sub = sub i32 %add, 1
  %div = udiv i32 %sub, 8
  %conv2 = zext i32 %div to i64
  %call3 = call i64 @qemu_get_buffer(ptr noundef %8, ptr noundef %10, i64 noundef %conv2)
  %12 = load ptr, ptr %dev.addr, align 8
  call void @msix_update_function_masked(ptr noundef %12)
  store i32 0, ptr %vector, align 4
  br label %for.cond

for.cond:                                         ; preds = %for.inc, %if.end
  %13 = load i32, ptr %vector, align 4
  %14 = load i32, ptr %n, align 4
  %cmp = icmp ult i32 %13, %14
  br i1 %cmp, label %for.body, label %for.end

for.body:                                         ; preds = %for.cond
  %15 = load ptr, ptr %dev.addr, align 8
  %16 = load i32, ptr %vector, align 4
  call void @msix_handle_mask_update(ptr noundef %15, i32 noundef %16, i1 noundef zeroext true)
  br label %for.inc

for.inc:                                          ; preds = %for.body
  %17 = load i32, ptr %vector, align 4
  %inc = add i32 %17, 1
  store i32 %inc, ptr %vector, align 4
  br label %for.cond, !llvm.loop !9

for.end:                                          ; preds = %for.cond, %if.then
  ret void
}