; Function Attrs: nounwind sspstrong uwtable
define dso_local void @msix_load(ptr noundef %dev, ptr noundef %f) local_unnamed_addr #0 {
entry:
  %msix_entries_nr = getelementptr inbounds nuw i8, ptr %dev, i64 1268
  %0 = load i32, ptr %msix_entries_nr, align 4
  %cap_present.i = getelementptr inbounds nuw i8, ptr %dev, i64 1260
  %1 = load i32, ptr %cap_present.i, align 4
  %and.i = and i32 %1, 2
  %tobool.not = icmp eq i32 %and.i, 0
  br i1 %tobool.not, label %for.end, label %if.end

if.end:                                           ; preds = %entry
  %cmp5.i = icmp sgt i32 %0, 0
  br i1 %cmp5.i, label %for.body.lr.ph.i, label %msix_clear_all_vectors.exit

for.body.lr.ph.i:                                 ; preds = %if.end
  %2 = getelementptr i8, ptr %dev, i64 1280
  br label %for.body.i

for.body.i:                                       ; preds = %for.body.i, %for.body.lr.ph.i
  %vector.06.i = phi i32 [ 0, %for.body.lr.ph.i ], [ %inc.i, %for.body.i ]
  %rem1.i.i.i = and i32 %vector.06.i, 7
  %shl.i.i.i = shl nuw nsw i32 1, %rem1.i.i.i
  %conv.i.i.i = trunc nuw i32 %shl.i.i.i to i8
  %not.i.i = xor i8 %conv.i.i.i, -1
  %dev.val.i.i = load ptr, ptr %2, align 16
  %div.i.i4.i = lshr i32 %vector.06.i, 3
  %idx.ext.i.i.i = zext nneg i32 %div.i.i4.i to i64
  %add.ptr.i.i.i = getelementptr i8, ptr %dev.val.i.i, i64 %idx.ext.i.i.i
  %3 = load i8, ptr %add.ptr.i.i.i, align 1
  %and.i.i = and i8 %3, %not.i.i
  store i8 %and.i.i, ptr %add.ptr.i.i.i, align 1
  %inc.i = add nuw nsw i32 %vector.06.i, 1
  %4 = load i32, ptr %msix_entries_nr, align 4
  %cmp.i = icmp slt i32 %inc.i, %4
  br i1 %cmp.i, label %for.body.i, label %msix_clear_all_vectors.exit, !llvm.loop !9

msix_clear_all_vectors.exit:                      ; preds = %for.body.i, %if.end
  %msix_table = getelementptr inbounds nuw i8, ptr %dev, i64 1272
  %5 = load ptr, ptr %msix_table, align 8
  %mul = shl i32 %0, 4
  %conv = zext i32 %mul to i64
  %call1 = tail call i64 @qemu_get_buffer(ptr noundef %f, ptr noundef %5, i64 noundef %conv) #14
  %msix_pba = getelementptr inbounds nuw i8, ptr %dev, i64 1280
  %6 = load ptr, ptr %msix_pba, align 16
  %sub = add i32 %0, 7
  %div12 = lshr i32 %sub, 3
  %conv2 = zext nneg i32 %div12 to i64
  %call3 = tail call i64 @qemu_get_buffer(ptr noundef %f, ptr noundef %6, i64 noundef %conv2) #14
  %7 = load i32, ptr %cap_present.i, align 4
  %and.i.i13 = and i32 %7, 2
  %tobool.not.i.i = icmp eq i32 %and.i.i13, 0
  br i1 %tobool.not.i.i, label %msix_update_function_masked.exit, label %msix_enabled.exit.i

msix_enabled.exit.i:                              ; preds = %msix_clear_all_vectors.exit
  %config.i.i = getelementptr i8, ptr %dev, i64 168
  %8 = load ptr, ptr %config.i.i, align 8
  %msix_cap.i.i = getelementptr i8, ptr %dev, i64 1264
  %9 = load i8, ptr %msix_cap.i.i, align 16
  %conv.i.i = zext i8 %9 to i64
  %10 = getelementptr i8, ptr %8, i64 %conv.i.i
  %arrayidx.i.i = getelementptr i8, ptr %10, i64 3
  %11 = load i8, ptr %arrayidx.i.i, align 1
  %tobool.not.i = icmp sgt i8 %11, -1
  br i1 %tobool.not.i, label %msix_update_function_masked.exit, label %lor.rhs.i

lor.rhs.i:                                        ; preds = %msix_enabled.exit.i
  %12 = lshr i8 %11, 6
  %.lobit.i = and i8 %12, 1
  br label %msix_update_function_masked.exit

msix_update_function_masked.exit:                 ; preds = %msix_clear_all_vectors.exit, %msix_enabled.exit.i, %lor.rhs.i
  %frombool.i = phi i8 [ 1, %msix_enabled.exit.i ], [ %.lobit.i, %lor.rhs.i ], [ 1, %msix_clear_all_vectors.exit ]
  %msix_function_masked.i = getelementptr inbounds nuw i8, ptr %dev, i64 2152
  store i8 %frombool.i, ptr %msix_function_masked.i, align 8
  %cmp14.not = icmp eq i32 %0, 0
  br i1 %cmp14.not, label %for.end, label %for.body

for.body:                                         ; preds = %msix_update_function_masked.exit, %for.body
  %vector.015 = phi i32 [ %inc, %for.body ], [ 0, %msix_update_function_masked.exit ]
  tail call fastcc void @msix_handle_mask_update(ptr noundef %dev, i32 noundef %vector.015, i1 noundef zeroext true)
  %inc = add nuw i32 %vector.015, 1
  %exitcond.not = icmp eq i32 %inc, %0
  br i1 %exitcond.not, label %for.end, label %for.body, !llvm.loop !10

for.end:                                          ; preds = %for.body, %msix_update_function_masked.exit, %entry
  ret void
}